; Function Attrs: nounwind uwtable
define range(i32 0, 2) i32 @Abc_NtkDelayTraceCritPath_rec(ptr noundef readonly captures(none) %0, ptr noundef %1, ptr noundef %2, ptr noundef readonly captures(none) %3) local_unnamed_addr #3 {
  %5 = getelementptr i8, ptr %1, i64 20
  %.val41 = load i32, ptr %5, align 4
  %6 = and i32 %.val41, 15
  switch i32 %6, label %11 [
    i32 5, label %7
    i32 2, label %7
  ]

7:                                                ; preds = %4, %4
  %8 = icmp eq ptr %2, null
  %9 = icmp eq ptr %2, %1
  %10 = or i1 %8, %9
  br label %.critedge.thread

11:                                               ; preds = %4
  %.val2.i = load ptr, ptr %1, align 8
  %12 = getelementptr i8, ptr %1, i64 16
  %.val3.i = load i32, ptr %12, align 8
  %13 = getelementptr inbounds nuw i8, ptr %.val2.i, i64 224
  %14 = add nsw i32 %.val3.i, 1
  tail call fastcc void @Vec_IntFillExtra(ptr noundef nonnull %13, i32 noundef %14)
  %15 = getelementptr i8, ptr %.val2.i, i64 232
  %.val.i.i.i = load ptr, ptr %15, align 8
  %16 = sext i32 %.val3.i to i64
  %17 = getelementptr inbounds i32, ptr %.val.i.i.i, i64 %16
  %18 = load i32, ptr %17, align 4
  %.val.i = load ptr, ptr %1, align 8
  %19 = getelementptr inbounds nuw i8, ptr %.val.i, i64 216
  %20 = load i32, ptr %19, align 8
  %.not = icmp eq i32 %18, %20
  %.val38 = load i32, ptr %12, align 8
  br i1 %.not, label %21, label %27

21:                                               ; preds = %11
  %22 = getelementptr i8, ptr %3, i64 8
  %.val42 = load ptr, ptr %22, align 8
  %23 = sext i32 %.val38 to i64
  %24 = getelementptr inbounds i32, ptr %.val42, i64 %23
  %25 = load i32, ptr %24, align 4
  %26 = icmp sgt i32 %25, -1
  br label %.critedge.thread

27:                                               ; preds = %11
  %28 = getelementptr inbounds nuw i8, ptr %.val.i, i64 224
  %29 = add nsw i32 %.val38, 1
  tail call fastcc void @Vec_IntFillExtra(ptr noundef nonnull %28, i32 noundef %29)
  %30 = getelementptr i8, ptr %.val.i, i64 232
  %.val.i.i.i51 = load ptr, ptr %30, align 8
  %31 = sext i32 %.val38 to i64
  %32 = getelementptr inbounds i32, ptr %.val.i.i.i51, i64 %31
  store i32 %20, ptr %32, align 4
  %33 = getelementptr i8, ptr %1, i64 28
  %.val3955 = load i32, ptr %33, align 4
  %34 = icmp sgt i32 %.val3955, 0
  br i1 %34, label %.lr.ph, label %.critedge.thread

.lr.ph:                                           ; preds = %27
  %35 = getelementptr i8, ptr %1, i64 32
  %36 = getelementptr i8, ptr %0, i64 8
  br label %37

37:                                               ; preds = %.lr.ph, %54
  %indvars.iv = phi i64 [ 0, %.lr.ph ], [ %indvars.iv.next, %54 ]
  %.03257 = phi float [ 1.000000e+09, %.lr.ph ], [ %.1, %54 ]
  %.03356 = phi ptr [ null, %.lr.ph ], [ %.134, %54 ]
  %.val45 = load ptr, ptr %1, align 8
  %.val46 = load ptr, ptr %35, align 8
  %38 = getelementptr i8, ptr %.val45, i64 32
  %.val45.val = load ptr, ptr %38, align 8
  %39 = getelementptr i8, ptr %.val45.val, i64 8
  %.val45.val.val = load ptr, ptr %39, align 8
  %40 = getelementptr inbounds nuw i32, ptr %.val46, i64 %indvars.iv
  %41 = load i32, ptr %40, align 4
  %42 = sext i32 %41 to i64
  %43 = getelementptr inbounds ptr, ptr %.val45.val.val, i64 %42
  %44 = load ptr, ptr %43, align 8
  %45 = tail call i32 @Abc_NtkDelayTraceCritPath_rec(ptr noundef %0, ptr noundef %44, ptr noundef %2, ptr noundef %3)
  %.not37 = icmp eq i32 %45, 0
  br i1 %.not37, label %54, label %46

46:                                               ; preds = %37
  %47 = icmp eq ptr %.03356, null
  %.val49.pre = load ptr, ptr %36, align 8
  %.val50.pre = load i32, ptr %12, align 8
  %.phi.trans.insert = sext i32 %.val50.pre to i64
  %.phi.trans.insert60 = getelementptr inbounds i32, ptr %.val49.pre, i64 %.phi.trans.insert
  %.pre = load i32, ptr %.phi.trans.insert60, align 4
  %.pre61 = trunc nuw nsw i64 %indvars.iv to i32
  %.pre63 = add nsw i32 %.pre, %.pre61
  %.pre65 = sext i32 %.pre63 to i64
  br i1 %47, label %._crit_edge, label %48

48:                                               ; preds = %46
  %49 = getelementptr inbounds i32, ptr %.val49.pre, i64 %.pre65
  %50 = load float, ptr %49, align 4
  %51 = fcmp ogt float %.03257, %50
  br i1 %51, label %._crit_edge, label %54

._crit_edge:                                      ; preds = %46, %48
  %52 = getelementptr inbounds i32, ptr %.val49.pre, i64 %.pre65
  %53 = load float, ptr %52, align 4
  br label %54

54:                                               ; preds = %48, %._crit_edge, %37
  %.134 = phi ptr [ %44, %._crit_edge ], [ %.03356, %48 ], [ %.03356, %37 ]
  %.1 = phi float [ %53, %._crit_edge ], [ %.03257, %48 ], [ %.03257, %37 ]
  %indvars.iv.next = add nuw nsw i64 %indvars.iv, 1
  %.val39 = load i32, ptr %33, align 4
  %55 = sext i32 %.val39 to i64
  %56 = icmp slt i64 %indvars.iv.next, %55
  br i1 %56, label %37, label %.critedge, !llvm.loop !37

.critedge:                                        ; preds = %54
  %.not54 = icmp eq ptr %.134, null
  br i1 %.not54, label %.critedge.thread, label %57

57:                                               ; preds = %.critedge
  %.val = load i32, ptr %12, align 8
  %58 = tail call i32 @Abc_NodeFindFanin(ptr noundef nonnull %1, ptr noundef nonnull %.134) #22
  %59 = getelementptr i8, ptr %3, i64 8
  %.val40 = load ptr, ptr %59, align 8
  %60 = sext i32 %.val to i64
  %61 = getelementptr inbounds i32, ptr %.val40, i64 %60
  store i32 %58, ptr %61, align 4
  br label %.critedge.thread

.critedge.thread:                                 ; preds = %27, %.critedge, %57, %21, %7
  %.035.in = phi i1 [ %10, %7 ], [ %26, %21 ], [ true, %57 ], [ false, %.critedge ], [ false, %27 ]
  %.035 = zext i1 %.035.in to i32
  ret i32 %.035
}